target datalayout = "e-m:e-p270:32:32-p271:32:32-p272:64:64-i64:64-i128:128-f80:128-n8:16:32:64-S128"
target triple = "x86_64-pc-linux-gnu"

%struct.H5FD_splitter_fapl_t = type { i64, i64, [4097 x i8], [4097 x i8], i8 }
%struct.H5FD_splitter_t = type { %struct.H5FD_t, i32, %struct.H5FD_splitter_fapl_t, ptr, ptr, ptr }
%struct.H5FD_t = type { i64, ptr, i64, i32, i64, i64, i64, i64, i64, i8 }

@H5FD_init_g = external global i8, align 1
@H5_libterm_g = external global i8, align 1
@.str = private unnamed_addr constant [106 x i8] c"generated/home/dtcxzyw/WorkSpace/Projects/compilers/llvm-opt-benchmark/bench/hdf5/hdf5/src/H5FDsplitter.c\00", align 1
@H5E_VFL_g = external global i64, align 8
@H5E_BADVALUE_g = external global i64, align 8
@__func__.H5FD__splitter_get_eoa = private unnamed_addr constant [23 x i8] c"H5FD__splitter_get_eoa\00", align 1
@.str.51 = private unnamed_addr constant [18 x i8] c"unable to get eoa\00", align 1

; Function Attrs: nounwind uwtable
define internal i64 @H5FD__splitter_get_eoa(ptr noundef %0, i32 noundef %1) #0 {
  %3 = alloca ptr, align 8
  %4 = alloca i32, align 4
  %5 = alloca ptr, align 8
  %6 = alloca i64, align 8
  %7 = alloca i8, align 1
  store ptr %0, ptr %3, align 8, !tbaa !38
  store i32 %1, ptr %4, align 4, !tbaa !3
  call void @llvm.lifetime.start.p0(i64 8, ptr %5) #10
  %8 = load ptr, ptr %3, align 8, !tbaa !38
  store ptr %8, ptr %5, align 8, !tbaa !40
  call void @llvm.lifetime.start.p0(i64 8, ptr %6) #10
  store i64 -1, ptr %6, align 8, !tbaa !11
  call void @llvm.lifetime.start.p0(i64 1, ptr %7) #10
  store i8 0, ptr %7, align 1, !tbaa !7
  %9 = load i8, ptr @H5FD_init_g, align 1, !tbaa !7, !range !9, !noundef !10
  %10 = trunc i8 %9 to i1
  br i1 %10, label %15, label %11

11:                                               ; preds = %2
  %12 = load i8, ptr @H5_libterm_g, align 1, !tbaa !7, !range !9, !noundef !10
  %13 = trunc i8 %12 to i1
  %14 = xor i1 %13, true
  br label %15

15:                                               ; preds = %11, %2
  %16 = phi i1 [ true, %2 ], [ %14, %11 ]
  %17 = xor i1 %16, true
  %18 = xor i1 %17, true
  %19 = zext i1 %18 to i32
  %20 = sext i32 %19 to i64
  %21 = call i64 @llvm.expect.i64(i64 %20, i64 1)
  %22 = icmp ne i64 %21, 0
  br i1 %22, label %23, label %51

23:                                               ; preds = %15
  %24 = load ptr, ptr %5, align 8, !tbaa !40
  %25 = getelementptr inbounds nuw %struct.H5FD_splitter_t, ptr %24, i32 0, i32 3
  %26 = load ptr, ptr %25, align 8, !tbaa !42
  %27 = load i32, ptr %4, align 4, !tbaa !3
  %28 = call i64 @H5FD_get_eoa(ptr noundef %26, i32 noundef %27)
  store i64 %28, ptr %6, align 8, !tbaa !11
  %29 = icmp eq i64 %28, -1
  br i1 %29, label %30, label %49

30:                                               ; preds = %23
  br label %31

31:                                               ; preds = %30
  br label %32

32:                                               ; preds = %31
  br label %33

33:                                               ; preds = %32
  %34 = load i64, ptr @H5E_VFL_g, align 8, !tbaa !11
  %35 = load i64, ptr @H5E_BADVALUE_g, align 8, !tbaa !11
  %36 = call i32 (ptr, ptr, i32, i64, i64, ptr, ...) @H5E_printf_stack(ptr noundef @.str, ptr noundef @__func__.H5FD__splitter_get_eoa, i32 noundef 939, i64 noundef %34, i64 noundef %35, ptr noundef @.str.51)
  br label %37

37:                                               ; preds = %33
  br label %38

38:                                               ; preds = %37
  store i8 1, ptr %7, align 1, !tbaa !7
  %39 = load i8, ptr %7, align 1, !tbaa !7, !range !9, !noundef !10
  %40 = trunc i8 %39 to i1
  %41 = zext i1 %40 to i8
  store i8 %41, ptr %7, align 1, !tbaa !7
  br label %42

42:                                               ; preds = %38
  br label %43

43:                                               ; preds = %42
  br label %44

44:                                               ; preds = %43
  store i64 -1, ptr %6, align 8, !tbaa !11
  br label %50

45:                                               ; No predecessors!
  br label %46

46:                                               ; preds = %45
  br label %47

47:                                               ; preds = %46
  br label %48

48:                                               ; preds = %47
  br label %49

49:                                               ; preds = %48, %23
  br label %50

50:                                               ; preds = %49, %44
  br label %51

51:                                               ; preds = %50, %15
  %52 = load i64, ptr %6, align 8, !tbaa !11
  call void @llvm.lifetime.end.p0(i64 1, ptr %7) #10
  call void @llvm.lifetime.end.p0(i64 8, ptr %6) #10
  call void @llvm.lifetime.end.p0(i64 8, ptr %5) #10
  ret i64 %52
}