; Function Attrs: nounwind uwtable
define internal i64 @H5FD__splitter_get_eoa(ptr noundef readonly captures(none) %0, i32 noundef %1) #0 {
  %3 = load i8, ptr @H5FD_init_g, align 1, !tbaa !3, !range !7, !noundef !8
  %4 = trunc nuw i8 %3 to i1
  %5 = load i8, ptr @H5_libterm_g, align 1, !range !7
  %6 = trunc nuw i8 %5 to i1
  %7 = xor i1 %6, true
  %8 = select i1 %4, i1 true, i1 %7
  br i1 %8, label %9, label %18, !prof !9

9:                                                ; preds = %2
  %10 = getelementptr inbounds nuw i8, ptr %0, i64 8304
  %11 = load ptr, ptr %10, align 8, !tbaa !33
  %12 = tail call i64 @H5FD_get_eoa(ptr noundef %11, i32 noundef %1) #12
  %13 = icmp eq i64 %12, -1
  br i1 %13, label %14, label %18

14:                                               ; preds = %9
  %15 = load i64, ptr @H5E_VFL_g, align 8, !tbaa !10
  %16 = load i64, ptr @H5E_BADVALUE_g, align 8, !tbaa !10
  %17 = tail call i32 (ptr, ptr, i32, i64, i64, ptr, ...) @H5E_printf_stack(ptr noundef nonnull @.str, ptr noundef nonnull @__func__.H5FD__splitter_get_eoa, i32 noundef 939, i64 noundef %15, i64 noundef %16, ptr noundef nonnull @.str.51) #12
  br label %18

18:                                               ; preds = %14, %9, %2
  %.0 = phi i64 [ -1, %14 ], [ %12, %9 ], [ -1, %2 ]
  ret i64 %.0
}